target datalayout = "e-m:e-p270:32:32-p271:32:32-p272:64:64-i64:64-i128:128-f80:128-n8:16:32:64-S128"
target triple = "x86_64-pc-linux-gnu"

%struct.CodedBitstreamContext = type { ptr, ptr, ptr, ptr, i32, i32, i32, ptr, ptr, ptr, ptr, i64 }
%struct.VP9RawFrameHeader = type { i8, i8, i8, i8, i8, i8, i8, i8, i8, i8, i8, i8, i8, i8, i8, i8, [3 x i8], [4 x i8], i8, i8, i8, i8, [3 x i8], i16, i16, i8, i16, i16, i8, i8, i8, i8, i8, i8, [4 x i8], [4 x i8], [2 x i8], [2 x i8], i8, i8, i8, i8, i8, i8, [7 x i8], i8, [3 x i8], i8, i8, [8 x [4 x i8]], [8 x [4 x i8]], [8 x [4 x i8]], i8, i8, i16 }
%struct.CodedBitstreamVP9Context = type { i32, i16, i16, i16, i16, i32, i32, i8, i8, i32, [8 x %struct.VP9ReferenceFrameState] }
%struct.VP9ReferenceFrameState = type { i32, i32, i32, i32, i32 }

@.str.44 = private unnamed_addr constant [20 x i8] c"frame_width_minus_1\00", align 1
@.str.45 = private unnamed_addr constant [21 x i8] c"frame_height_minus_1\00", align 1

; Function Attrs: nounwind uwtable
define internal i32 @cbs_vp9_read_frame_size(ptr noundef %0, ptr noundef %1, ptr noundef %2) #0 {
  %4 = alloca i32, align 4
  %5 = alloca ptr, align 8
  %6 = alloca ptr, align 8
  %7 = alloca ptr, align 8
  %8 = alloca ptr, align 8
  %9 = alloca i32, align 4
  %10 = alloca i32, align 4
  %11 = alloca i32, align 4
  %12 = alloca i32, align 4
  store ptr %0, ptr %5, align 8, !tbaa !4
  store ptr %1, ptr %6, align 8, !tbaa !62
  store ptr %2, ptr %7, align 8, !tbaa !79
  call void @llvm.lifetime.start.p0(i64 8, ptr %8) #8
  %13 = load ptr, ptr %5, align 8, !tbaa !4
  %14 = getelementptr inbounds nuw %struct.CodedBitstreamContext, ptr %13, i32 0, i32 2
  %15 = load ptr, ptr %14, align 8, !tbaa !59
  store ptr %15, ptr %8, align 8, !tbaa !60
  call void @llvm.lifetime.start.p0(i64 4, ptr %9) #8
  br label %16

16:                                               ; preds = %3
  call void @llvm.lifetime.start.p0(i64 4, ptr %10) #8
  br label %17

17:                                               ; preds = %16
  %18 = load ptr, ptr %5, align 8, !tbaa !4
  %19 = load ptr, ptr %6, align 8, !tbaa !62
  %20 = call i32 @ff_cbs_read_simple_unsigned(ptr noundef %18, ptr noundef %19, i32 noundef 16, ptr noundef @.str.44, ptr noundef %10)
  store i32 %20, ptr %9, align 4, !tbaa !11
  %21 = load i32, ptr %9, align 4, !tbaa !11
  %22 = icmp slt i32 %21, 0
  br i1 %22, label %23, label %25

23:                                               ; preds = %17
  %24 = load i32, ptr %9, align 4, !tbaa !11
  store i32 %24, ptr %4, align 4
  store i32 1, ptr %11, align 4
  br label %32

25:                                               ; preds = %17
  br label %26

26:                                               ; preds = %25
  br label %27

27:                                               ; preds = %26
  %28 = load i32, ptr %10, align 4, !tbaa !11
  %29 = trunc i32 %28 to i16
  %30 = load ptr, ptr %7, align 8, !tbaa !79
  %31 = getelementptr inbounds nuw %struct.VP9RawFrameHeader, ptr %30, i32 0, i32 23
  store i16 %29, ptr %31, align 2, !tbaa !122
  store i32 0, ptr %11, align 4
  br label %32

32:                                               ; preds = %27, %23
  call void @llvm.lifetime.end.p0(i64 4, ptr %10) #8
  %33 = load i32, ptr %11, align 4
  switch i32 %33, label %106 [
    i32 0, label %34
  ]

34:                                               ; preds = %32
  br label %35

35:                                               ; preds = %34
  br label %36

36:                                               ; preds = %35
  br label %37

37:                                               ; preds = %36
  call void @llvm.lifetime.start.p0(i64 4, ptr %12) #8
  br label %38

38:                                               ; preds = %37
  %39 = load ptr, ptr %5, align 8, !tbaa !4
  %40 = load ptr, ptr %6, align 8, !tbaa !62
  %41 = call i32 @ff_cbs_read_simple_unsigned(ptr noundef %39, ptr noundef %40, i32 noundef 16, ptr noundef @.str.45, ptr noundef %12)
  store i32 %41, ptr %9, align 4, !tbaa !11
  %42 = load i32, ptr %9, align 4, !tbaa !11
  %43 = icmp slt i32 %42, 0
  br i1 %43, label %44, label %46

44:                                               ; preds = %38
  %45 = load i32, ptr %9, align 4, !tbaa !11
  store i32 %45, ptr %4, align 4
  store i32 1, ptr %11, align 4
  br label %53

46:                                               ; preds = %38
  br label %47

47:                                               ; preds = %46
  br label %48

48:                                               ; preds = %47
  %49 = load i32, ptr %12, align 4, !tbaa !11
  %50 = trunc i32 %49 to i16
  %51 = load ptr, ptr %7, align 8, !tbaa !79
  %52 = getelementptr inbounds nuw %struct.VP9RawFrameHeader, ptr %51, i32 0, i32 24
  store i16 %50, ptr %52, align 2, !tbaa !123
  store i32 0, ptr %11, align 4
  br label %53

53:                                               ; preds = %48, %44
  call void @llvm.lifetime.end.p0(i64 4, ptr %12) #8
  %54 = load i32, ptr %11, align 4
  switch i32 %54, label %106 [
    i32 0, label %55
  ]

55:                                               ; preds = %53
  br label %56

56:                                               ; preds = %55
  br label %57

57:                                               ; preds = %56
  %58 = load ptr, ptr %7, align 8, !tbaa !79
  %59 = getelementptr inbounds nuw %struct.VP9RawFrameHeader, ptr %58, i32 0, i32 23
  %60 = load i16, ptr %59, align 2, !tbaa !122
  %61 = zext i16 %60 to i32
  %62 = add nsw i32 %61, 1
  %63 = load ptr, ptr %8, align 8, !tbaa !60
  %64 = getelementptr inbounds nuw %struct.CodedBitstreamVP9Context, ptr %63, i32 0, i32 5
  store i32 %62, ptr %64, align 4, !tbaa !107
  %65 = load ptr, ptr %7, align 8, !tbaa !79
  %66 = getelementptr inbounds nuw %struct.VP9RawFrameHeader, ptr %65, i32 0, i32 24
  %67 = load i16, ptr %66, align 2, !tbaa !123
  %68 = zext i16 %67 to i32
  %69 = add nsw i32 %68, 1
  %70 = load ptr, ptr %8, align 8, !tbaa !60
  %71 = getelementptr inbounds nuw %struct.CodedBitstreamVP9Context, ptr %70, i32 0, i32 6
  store i32 %69, ptr %71, align 4, !tbaa !110
  %72 = load ptr, ptr %8, align 8, !tbaa !60
  %73 = getelementptr inbounds nuw %struct.CodedBitstreamVP9Context, ptr %72, i32 0, i32 5
  %74 = load i32, ptr %73, align 4, !tbaa !107
  %75 = add nsw i32 %74, 7
  %76 = ashr i32 %75, 3
  %77 = trunc i32 %76 to i16
  %78 = load ptr, ptr %8, align 8, !tbaa !60
  %79 = getelementptr inbounds nuw %struct.CodedBitstreamVP9Context, ptr %78, i32 0, i32 1
  store i16 %77, ptr %79, align 4, !tbaa !124
  %80 = load ptr, ptr %8, align 8, !tbaa !60
  %81 = getelementptr inbounds nuw %struct.CodedBitstreamVP9Context, ptr %80, i32 0, i32 6
  %82 = load i32, ptr %81, align 4, !tbaa !110
  %83 = add nsw i32 %82, 7
  %84 = ashr i32 %83, 3
  %85 = trunc i32 %84 to i16
  %86 = load ptr, ptr %8, align 8, !tbaa !60
  %87 = getelementptr inbounds nuw %struct.CodedBitstreamVP9Context, ptr %86, i32 0, i32 2
  store i16 %85, ptr %87, align 2, !tbaa !125
  %88 = load ptr, ptr %8, align 8, !tbaa !60
  %89 = getelementptr inbounds nuw %struct.CodedBitstreamVP9Context, ptr %88, i32 0, i32 1
  %90 = load i16, ptr %89, align 4, !tbaa !124
  %91 = zext i16 %90 to i32
  %92 = add nsw i32 %91, 7
  %93 = ashr i32 %92, 3
  %94 = trunc i32 %93 to i16
  %95 = load ptr, ptr %8, align 8, !tbaa !60
  %96 = getelementptr inbounds nuw %struct.CodedBitstreamVP9Context, ptr %95, i32 0, i32 3
  store i16 %94, ptr %96, align 4, !tbaa !126
  %97 = load ptr, ptr %8, align 8, !tbaa !60
  %98 = getelementptr inbounds nuw %struct.CodedBitstreamVP9Context, ptr %97, i32 0, i32 2
  %99 = load i16, ptr %98, align 2, !tbaa !125
  %100 = zext i16 %99 to i32
  %101 = add nsw i32 %100, 7
  %102 = ashr i32 %101, 3
  %103 = trunc i32 %102 to i16
  %104 = load ptr, ptr %8, align 8, !tbaa !60
  %105 = getelementptr inbounds nuw %struct.CodedBitstreamVP9Context, ptr %104, i32 0, i32 4
  store i16 %103, ptr %105, align 2, !tbaa !127
  store i32 0, ptr %4, align 4
  store i32 1, ptr %11, align 4
  br label %106

106:                                              ; preds = %57, %53, %32
  call void @llvm.lifetime.end.p0(i64 4, ptr %9) #8
  call void @llvm.lifetime.end.p0(i64 8, ptr %8) #8
  %107 = load i32, ptr %4, align 4
  ret i32 %107
}