; Function Attrs: nounwind uwtable
define internal fastcc range(i32 -2147483648, 1) i32 @cbs_vp9_read_frame_size(ptr noundef %0, ptr noundef nonnull %1, ptr noundef captures(none) %2) unnamed_addr #0 {
  %4 = alloca i32, align 4
  %5 = alloca i32, align 4
  %6 = getelementptr inbounds nuw i8, ptr %0, i64 16
  %7 = load ptr, ptr %6, align 8, !tbaa !41
  call void @llvm.lifetime.start.p0(i64 4, ptr nonnull %4) #8
  %8 = call i32 @ff_cbs_read_simple_unsigned(ptr noundef %0, ptr noundef nonnull %1, i32 noundef 16, ptr noundef nonnull @.str.44, ptr noundef nonnull %4) #8
  %9 = icmp sgt i32 %8, -1
  br i1 %9, label %10, label %.critedge

10:                                               ; preds = %3
  %11 = load i32, ptr %4, align 4, !tbaa !22
  %12 = trunc i32 %11 to i16
  %13 = getelementptr inbounds nuw i8, ptr %2, i64 30
  store i16 %12, ptr %13, align 2, !tbaa !105
  call void @llvm.lifetime.end.p0(i64 4, ptr nonnull %4) #8
  call void @llvm.lifetime.start.p0(i64 4, ptr nonnull %5) #8
  %14 = call i32 @ff_cbs_read_simple_unsigned(ptr noundef nonnull %0, ptr noundef nonnull %1, i32 noundef 16, ptr noundef nonnull @.str.45, ptr noundef nonnull %5) #8
  %15 = icmp sgt i32 %14, -1
  br i1 %15, label %17, label %16

16:                                               ; preds = %10
  call void @llvm.lifetime.end.p0(i64 4, ptr nonnull %5) #8
  br label %44

17:                                               ; preds = %10
  %18 = load i32, ptr %5, align 4, !tbaa !22
  %19 = trunc i32 %18 to i16
  %20 = getelementptr inbounds nuw i8, ptr %2, i64 32
  store i16 %19, ptr %20, align 2, !tbaa !106
  call void @llvm.lifetime.end.p0(i64 4, ptr nonnull %5) #8
  %21 = load i16, ptr %13, align 2, !tbaa !105
  %22 = zext i16 %21 to i32
  %23 = add nuw nsw i32 %22, 1
  %24 = getelementptr inbounds nuw i8, ptr %7, i64 12
  store i32 %23, ptr %24, align 4, !tbaa !70
  %25 = and i32 %18, 65535
  %26 = add nuw nsw i32 %25, 1
  %27 = getelementptr inbounds nuw i8, ptr %7, i64 16
  store i32 %26, ptr %27, align 4, !tbaa !71
  %28 = add nuw nsw i32 %22, 8
  %29 = lshr i32 %28, 3
  %30 = trunc nuw nsw i32 %29 to i16
  %31 = getelementptr inbounds nuw i8, ptr %7, i64 4
  store i16 %30, ptr %31, align 4, !tbaa !107
  %32 = add nuw nsw i32 %25, 8
  %33 = lshr i32 %32, 3
  %34 = trunc nuw nsw i32 %33 to i16
  %35 = getelementptr inbounds nuw i8, ptr %7, i64 6
  store i16 %34, ptr %35, align 2, !tbaa !108
  %36 = add nuw nsw i32 %29, 7
  %37 = lshr i32 %36, 3
  %38 = trunc nuw nsw i32 %37 to i16
  %39 = getelementptr inbounds nuw i8, ptr %7, i64 8
  store i16 %38, ptr %39, align 4, !tbaa !109
  %40 = add nuw nsw i32 %33, 7
  %41 = lshr i32 %40, 3
  %42 = trunc nuw nsw i32 %41 to i16
  %43 = getelementptr inbounds nuw i8, ptr %7, i64 10
  store i16 %42, ptr %43, align 2, !tbaa !110
  br label %44

.critedge:                                        ; preds = %3
  call void @llvm.lifetime.end.p0(i64 4, ptr nonnull %4) #8
  br label %44

44:                                               ; preds = %16, %.critedge, %17
  %.127 = phi i32 [ 0, %17 ], [ %14, %16 ], [ %8, %.critedge ]
  ret i32 %.127
}